; Function Attrs: nounwind uwtable
define hidden void @je_hpa_shard_stats_merge(ptr noundef %0, ptr noundef %1, ptr noundef %2) local_unnamed_addr #1 {
  %4 = getelementptr inbounds nuw i8, ptr %1, i64 248
  %5 = tail call i32 @pthread_mutex_trylock(ptr noundef nonnull %4) #8
  %.not.i = icmp eq i32 %5, 0
  br i1 %.not.i, label %malloc_mutex_trylock_final.exit.i, label %7

malloc_mutex_trylock_final.exit.i:                ; preds = %3
  %6 = getelementptr inbounds nuw i8, ptr %1, i64 240
  store atomic i8 1, ptr %6 monotonic, align 1
  br label %9

7:                                                ; preds = %3
  %8 = getelementptr inbounds nuw i8, ptr %1, i64 176
  tail call void @je_malloc_mutex_lock_slow(ptr noundef nonnull %8) #8
  br label %9

9:                                                ; preds = %7, %malloc_mutex_trylock_final.exit.i
  %10 = getelementptr inbounds nuw i8, ptr %1, i64 232
  %11 = load i64, ptr %10, align 8, !tbaa !56
  %12 = add i64 %11, 1
  store i64 %12, ptr %10, align 8, !tbaa !56
  %13 = getelementptr inbounds nuw i8, ptr %1, i64 224
  %14 = load ptr, ptr %13, align 8, !tbaa !60
  %.not.i.i = icmp eq ptr %14, %0
  br i1 %.not.i.i, label %malloc_mutex_lock.exit, label %15

15:                                               ; preds = %9
  store ptr %0, ptr %13, align 8, !tbaa !60
  %16 = getelementptr inbounds nuw i8, ptr %1, i64 216
  %17 = load i64, ptr %16, align 8, !tbaa !61
  %18 = add i64 %17, 1
  store i64 %18, ptr %16, align 8, !tbaa !61
  br label %malloc_mutex_lock.exit

malloc_mutex_lock.exit:                           ; preds = %9, %15
  %19 = getelementptr inbounds nuw i8, ptr %1, i64 136
  %20 = tail call i32 @pthread_mutex_trylock(ptr noundef nonnull %19) #8
  %.not.i13 = icmp eq i32 %20, 0
  br i1 %.not.i13, label %malloc_mutex_trylock_final.exit.i15, label %22

malloc_mutex_trylock_final.exit.i15:              ; preds = %malloc_mutex_lock.exit
  %21 = getelementptr inbounds nuw i8, ptr %1, i64 128
  store atomic i8 1, ptr %21 monotonic, align 1
  br label %24

22:                                               ; preds = %malloc_mutex_lock.exit
  %23 = getelementptr inbounds nuw i8, ptr %1, i64 64
  tail call void @je_malloc_mutex_lock_slow(ptr noundef nonnull %23) #8
  br label %24

24:                                               ; preds = %22, %malloc_mutex_trylock_final.exit.i15
  %25 = getelementptr inbounds nuw i8, ptr %1, i64 120
  %26 = load i64, ptr %25, align 8, !tbaa !56
  %27 = add i64 %26, 1
  store i64 %27, ptr %25, align 8, !tbaa !56
  %28 = getelementptr inbounds nuw i8, ptr %1, i64 112
  %29 = load ptr, ptr %28, align 8, !tbaa !60
  %.not.i.i14 = icmp eq ptr %29, %0
  br i1 %.not.i.i14, label %malloc_mutex_lock.exit16, label %30

30:                                               ; preds = %24
  store ptr %0, ptr %28, align 8, !tbaa !60
  %31 = getelementptr inbounds nuw i8, ptr %1, i64 104
  %32 = load i64, ptr %31, align 8, !tbaa !61
  %33 = add i64 %32, 1
  store i64 %33, ptr %31, align 8, !tbaa !61
  br label %malloc_mutex_lock.exit16

malloc_mutex_lock.exit16:                         ; preds = %24, %30
  %34 = getelementptr inbounds nuw i8, ptr %1, i64 1352
  tail call void @je_psset_stats_accum(ptr noundef %2, ptr noundef nonnull %34) #8
  %35 = getelementptr inbounds nuw i8, ptr %2, i64 3240
  %36 = getelementptr inbounds nuw i8, ptr %1, i64 5736
  %37 = load i64, ptr %36, align 8, !tbaa !89
  %38 = load i64, ptr %35, align 8, !tbaa !89
  %39 = add i64 %38, %37
  store i64 %39, ptr %35, align 8, !tbaa !89
  %40 = getelementptr inbounds nuw i8, ptr %1, i64 5744
  %41 = load i64, ptr %40, align 8, !tbaa !90
  %42 = getelementptr inbounds nuw i8, ptr %2, i64 3248
  %43 = load i64, ptr %42, align 8, !tbaa !90
  %44 = add i64 %43, %41
  store i64 %44, ptr %42, align 8, !tbaa !90
  %45 = getelementptr inbounds nuw i8, ptr %1, i64 5752
  %46 = load i64, ptr %45, align 8, !tbaa !91
  %47 = getelementptr inbounds nuw i8, ptr %2, i64 3256
  %48 = load i64, ptr %47, align 8, !tbaa !91
  %49 = add i64 %48, %46
  store i64 %49, ptr %47, align 8, !tbaa !91
  %50 = getelementptr inbounds nuw i8, ptr %1, i64 5760
  %51 = load i64, ptr %50, align 8, !tbaa !92
  %52 = getelementptr inbounds nuw i8, ptr %2, i64 3264
  %53 = load i64, ptr %52, align 8, !tbaa !92
  %54 = add i64 %53, %51
  store i64 %54, ptr %52, align 8, !tbaa !92
  %55 = getelementptr inbounds nuw i8, ptr %1, i64 5768
  %56 = load i64, ptr %55, align 8, !tbaa !93
  %57 = getelementptr inbounds nuw i8, ptr %2, i64 3272
  %58 = load i64, ptr %57, align 8, !tbaa !93
  %59 = add i64 %58, %56
  store i64 %59, ptr %57, align 8, !tbaa !93
  %60 = getelementptr inbounds nuw i8, ptr %1, i64 128
  store atomic i8 0, ptr %60 monotonic, align 1
  %61 = tail call i32 @pthread_mutex_unlock(ptr noundef nonnull %19) #8
  %62 = getelementptr inbounds nuw i8, ptr %1, i64 240
  store atomic i8 0, ptr %62 monotonic, align 1
  %63 = tail call i32 @pthread_mutex_unlock(ptr noundef nonnull %4) #8
  ret void
}